MPASM 5.87                      TP_FINAL.ASM   6-10-2022  19:07:20         PAGE  1


LOC  OBJECT CODE     LINE SOURCE TEXT
  VALUE

                      00001         LIST        P=16F887
                      00002         #INCLUDE    <P16F887.INC>
                      00001         LIST
                      00002 
                      00003 ;==========================================================================
                      00004 ; Build date : Jan 06 2020
                      00005 ;  MPASM PIC16F887 processor include
                      00006 ; 
                      00007 ;  (c) Copyright 1999-2020 Microchip Technology, All rights reserved
                      00008 ;==========================================================================
                      00009 
                      00810         LIST
                      00003         
                      00004         ; CONFIG1
                      00005         ; __config 0x3FE4
2007   3FE4           00006         __CONFIG _CONFIG1, _FOSC_INTRC_NOCLKOUT & _WDTE_OFF & _PWRTE_ON & _MCLRE_ON & _CP_OFF & _CPD_OFF
                             & _BOREN_ON & _IESO_ON & _FCMEN_ON & _LVP_ON
                      00007         ; CONFIG2
                      00008         ; __config 0x3FFF
2008   3FFF           00009         __CONFIG _CONFIG2, _BOR4V_BOR40V & _WRT_OFF
                      00010  
  00000070            00011 COUNT   EQU     0x70
  00000071            00012 AND1    EQU     0x71
  00000072            00013 AND2    EQU     0x72
  00000073            00014 BU_ST   EQU     0x73
  00000074            00015 BU_W    EQU     0x74
  00000075            00016 TECLADO EQU     0x75 
  00000076            00017 CLEAR   EQU     0x76
  00000077            00018 SAVES   EQU     0x77
  00000078            00019 TEMP    EQU     0x78
  00000079            00020 DELTA   EQU     0x79
  0000007A            00021 NUMERAL EQU     0x7A
  0000007B            00022 ASTERISCO EQU   0x7B
  0000007C            00023 UNIDAD  EQU     0x7C
  0000007D            00024 DECENA  EQU     0x7D
  0000007E            00025 TIMER   EQU     0x7E
  0000007F            00026 FLAG    EQU     0x7F
                      00027  
                      00028         
                      00029         ORG     0x4
0004   2???           00030         GOTO    INTER_SUB
                      00031         ORG     0x0
0000   2???           00032         GOTO    START
                      00033         ORG     0x5
                      00034         
                      00035         
                      00036 ; TODO -> DEBEMOS HACER QUE TOME SOLO LAS PULSACIONES EN FLANCO ASCENDENTE.
                      00037 ; TAMBIEN PODEMOS PONER UN  RETRASO AL ENTRAR A LAS INTRODUCCIONES
                      00038 
0005                  00039 START
                      00040         ; MOVEMOS AL BANCO 2
0005   1703           00041         BSF     STATUS,RP1
0006   1283           00042         BCF     STATUS,RP0
MPASM 5.87                      TP_FINAL.ASM   6-10-2022  19:07:20         PAGE  2


LOC  OBJECT CODE     LINE SOURCE TEXT
  VALUE

                      00043         
                      00044 
                      00045         ; NUMEROS DEL TECLADO
0007   3000           00046         MOVLW   .0
0008   00A1           00047         MOVWF   0x21
                      00048         
0009   3001           00049         MOVLW   .1
000A   00C8           00050         MOVWF   0x48
                      00051         
000B   3002           00052         MOVLW   .2
000C   00A8           00053         MOVWF   0x28
                      00054         
000D   3003           00055         MOVLW   .3
000E   0098           00056         MOVWF   0x18
                      00057         
000F   3004           00058         MOVLW   .4
0010   00C4           00059         MOVWF   0x44
                      00060         
0011   3005           00061         MOVLW   .5
0012   00A4           00062         MOVWF   0x24
                      00063         
0013   3006           00064         MOVLW   .6
0014   0094           00065         MOVWF   0x14
                      00066         
0015   3007           00067         MOVLW   .7
0016   00C2           00068         MOVWF   0x42
                      00069         
0017   3008           00070         MOVLW   .8
0018   00A2           00071         MOVWF   0x22
                      00072         
0019   3009           00073         MOVLW   .9
001A   0092           00074         MOVWF   0x12
                      00075         
                      00076         ; VAMOS AL BANCO 0
001B   1303           00077         BCF     STATUS,RP1      
                      00078 
                      00079         
001C   30BB           00080         MOVLW   B'10111011'
001D   00FA           00081         MOVWF   NUMERAL ; AND PARA SABER SI ES NUMERAL
                      00082 
001E   30BE           00083         MOVLW   B'10111110'
001F   00FB           00084         MOVWF   ASTERISCO ; AND PARA SABER SI ES ASTERISCO
                      00085         
0020   3078           00086         MOVLW   B'01111000'
0021   00F1           00087         MOVWF   AND1 ; PARA HACER EL ESCANEO
                      00088         
0022   300A           00089         MOVLW   B'00001010'
0023   00F2           00090         MOVWF   AND2 ; AND DE 10
                      00091         
0024   3007           00092         MOVLW   B'00000111'
0025   0086           00093         MOVWF   PORTB  ; DEJAMOS LAS SALIDAS DEL PORTB EN 1 PARA Q ESTE LISTO PARA CUANDO SE APRIETE UNA
                             TECLA DEL TECLADO
0026   0187           00094         CLRF    PORTC
MPASM 5.87                      TP_FINAL.ASM   6-10-2022  19:07:20         PAGE  3


LOC  OBJECT CODE     LINE SOURCE TEXT
  VALUE

0027   0189           00095         CLRF    PORTE
                      00096 
0028   3004           00097         MOVLW   .4
0029   00F0           00098         MOVWF   COUNT ; CARGAMOS EL CONTADOR DE CICLOS DEL TIMER 1 (PARA EL BLINK DEL FINAL)
                      00099         
002A   3020           00100         MOVLW   0x20
002B   00F7           00101         MOVWF   SAVES ; SAVES POINTER
                      00102         
                      00103         
                      00104         ;---- TECLADO ----
002C   1683 1303      00105         BANKSEL TRISB
002E   3078           00106         MOVLW   0x78 ; <0:2> OUTPUTS, <3:6> INPUTS
Message[302]: Register in operand not in bank 0.  Ensure that bank bits are correct.
002F   0086           00107         MOVWF   TRISB ; TECLADO
                      00108         
                      00109         ; DISPLAYS, 7 SEGMENTOS Y LED COMO OUTPUT (TRISC Y TRISE)
Message[302]: Register in operand not in bank 0.  Ensure that bank bits are correct.
0030   0187           00110         CLRF    TRISC ; OUTPUTS SEGMENTOS
Message[302]: Register in operand not in bank 0.  Ensure that bank bits are correct.
0031   0189           00111         CLRF    TRISE ; OUTPUTS DISPLAYS Y LED
                      00112         
                      00113         ; RA0 ES EL CANAL ANALOGICO PARA EL ADC
Message[302]: Register in operand not in bank 0.  Ensure that bank bits are correct.
0032   0185           00114         CLRF    TRISA
Message[302]: Register in operand not in bank 0.  Ensure that bank bits are correct.
0033   1405           00115         BSF     TRISA,0 ; SOLO EL BIT 0 DEL PORT A TIENE QUE SER ENTRADA
                      00116         
                      00117         ;--- CONFIG TIMER 0 - SIN PRESCALER ---
Message[302]: Register in operand not in bank 0.  Ensure that bank bits are correct.
0034   1281           00118         BCF     OPTION_REG, 5 ; T0CS - EL SOURCE TIENE QUE SER INTERNO
Message[302]: Register in operand not in bank 0.  Ensure that bank bits are correct.
0035   1381           00119         BCF     OPTION_REG, 7 ; RBPU - RESISTENCIAS DE PULL-UP EN PORT B ACTIVADAS
                      00120         
                      00121         ; TODO DIGITAL MENOS RA0 QUE ES EL CANAL QUE USAMOS EN EL ADC
0036   1683 1703      00122         BANKSEL ANSELH
Message[302]: Register in operand not in bank 0.  Ensure that bank bits are correct.
0038   0189           00123         CLRF    ANSELH ; TODO PORTB DIGITAL
0039   3001           00124         MOVLW   0x01
Message[302]: Register in operand not in bank 0.  Ensure that bank bits are correct.
003A   0088           00125         MOVWF   ANSEL ; AN0/RA0 CANAL ADC
                      00126         
                      00127         ; ---- ADC ----
003B   1283 1303      00128         BANKSEL ADCON0
003D   3041           00129         MOVLW   0x41 ; FOSC/8 PARA 4MHz Y ADON=1
003E   009F           00130         MOVWF   ADCON0
                      00131         
003F   1683 1303      00132         BANKSEL ADCON1
0041   3080           00133         MOVLW   0x80 ; RIGHT JUSTIFIED Y VDD Y VSS COMO VOLT DE REFERENCIA
Message[302]: Register in operand not in bank 0.  Ensure that bank bits are correct.
0042   009F           00134         MOVWF   ADCON1
                      00135 
                      00136         ; ---- INTERRUPCIONES ----
0043   3048           00137         MOVLW   0x48 ; PEIE Y RBIE SET
MPASM 5.87                      TP_FINAL.ASM   6-10-2022  19:07:20         PAGE  4


LOC  OBJECT CODE     LINE SOURCE TEXT
  VALUE

0044   008B           00138         MOVWF   INTCON 
                      00139         
0045   1683 1303      00140         BANKSEL IOCB
0047   3078           00141         MOVLW   0x78 ; IOC PORTB <3:6> - INTERRUPCIONES POR CAMBIO DE ESTADO
Message[302]: Register in operand not in bank 0.  Ensure that bank bits are correct.
0048   0096           00142         MOVWF   IOCB
Message[302]: Register in operand not in bank 0.  Ensure that bank bits are correct.
0049   140C           00143         BSF     PIE1,TMR1IE ; INTERRUPCIONES POR TIMER 1
004A   178B           00144         BSF     INTCON,GIE ; INTERRUPCIONES GLOBALES
                      00145                 
004B   1283 1303      00146         BANKSEL PORTB
004D   3007           00147         MOVLW   B'00000111'
004E   0086           00148         MOVWF   PORTB
                      00149         
004F   1875           00150 L1      BTFSC   TECLADO,0 ; SI ESTA EN 1 ES PORQUE SE APRETO UNA TECLA
0050   2???           00151         CALL    SUB_TECLADO
0051   187E           00152         BTFSC   TIMER,0 ; SI ESTA EN 1 ES PORQUE INTERRUMPIO EL TIMER 1
0052   2???           00153         CALL    RETARDO_TECLAS
0053   2???           00154         GOTO    L1 ; TECLADO Y TIMER SOLO CAMBIAN EN LA RUTINA DE INTERRUPCION 
                      00155         
                      00156 
                      00157 ; HANDLER DE LAS INTERRUPCIONES GLOBALES        
0054                  00158 INTER_SUB
                      00159         ; ---- GUARDAMOS CONTEXTO ---- 
0054   00F4           00160         MOVWF   BU_W
0055   0E03           00161         SWAPF   STATUS,W
0056   00F3           00162         MOVWF   BU_ST
                      00163 
0057   1283 1303      00164         BANKSEL PORTB ; VAMOS AL BANCO 0
                      00165         
                      00166         ; ---- VERIFICAMOS QUIEN INTERRUMPIO ---- 
0059   180B           00167         BTFSC   INTCON,RBIF ; FLAG DEL TECLADO
005A   09F5           00168         COMF    TECLADO,F
005B   180C           00169         BTFSC   PIR1,TMR1IF ; FLAG DEL TIMER1
005C   2???           00170         CALL    RETARDO_TECLAS
                      00171         
005D   0886           00172         MOVF    PORTB,F
005E   100B           00173         BCF     INTCON,RBIF ; LIMPIAMOS LA FLAG DEL TECLADO
005F   100C           00174         BCF     PIR1,TMR1IF ; LIMPIAMOS LA FLAG DEL TIMER1
                      00175 
                      00176         
                      00177         ; ---- RECUPERAMOS CONTEXTO ---- 
0060   0E73           00178         SWAPF   BU_ST,W
0061   0083           00179         MOVWF   STATUS
0062   0EF4           00180         SWAPF   BU_W,F
0063   0E74           00181         SWAPF   BU_W,W
                      00182         
0064   0009           00183         RETFIE
                      00184 
                      00185 ; SE LLAMA DESDE SUB DE INTERRUPCION    
0065                  00186 RETARDO_TECLAS 
0065   158B           00187         BSF     INTCON,RBIE ; HABILITAMOS DE NUEVO LAS INTERRUPCIONES POR TECLADO
0066   1010           00188         BCF     T1CON,TMR1ON ; APAGAMOS EL TIMER1
MPASM 5.87                      TP_FINAL.ASM   6-10-2022  19:07:20         PAGE  5


LOC  OBJECT CODE     LINE SOURCE TEXT
  VALUE

0067   0008           00189         RETURN  
                      00190         
                      00191         
                      00192 ; ---- RUTINA DE ESCANEO DEL TECLADO ----  SE LLAMA DESDE EL MAIN
                      00193 ; NUMERAL RESETEA BUFFER Y HACE Q EL LED TITILE
                      00194 ; ASTERISCO SE USA PARA GUARDAR UN VALOR LEIDO EN EL ADC 
                      00195 ; CUALQUIER OTRO NUMERO MUESTRA EL VALOR QUE SE GUARDÓ PREVIAMENTE CON ASTERISCO EN EL BUFFER   
0068                  00196 SUB_TECLADO     
                      00197         
                      00198         ; RETARDO DEL TECLADO 0.5 SEG - PARA QUE TOME SOLO EL FLANCO ASCENDENTE
0068   018E           00199         CLRF    TMR1L
0069   018F           00200         CLRF    TMR1H 
006A   1410           00201         BSF     T1CON,0 ; PRENDEMOS EL TIMER
                      00202         
006B   118B           00203         BCF     INTCON,RBIE ; APAGAMOS LAS INTERRUPCIONES POR TECLADO
                      00204         
006C   09F5           00205         COMF    TECLADO,F ; LIMPIAMOS LA FLAG
006D   1283 1303      00206         BANKSEL PORTB
006F   0186           00207         CLRF    PORTB
0070   1406           00208         BSF     PORTB,0
                      00209         
0071                  00210 ESCANEO ; LO RECORREMOS COMO MAXIMO 3 VECES
0071   0871           00211         MOVF    AND1,W
0072   0506           00212         ANDWF   PORTB,W 
0073   1D03           00213         BTFSS   STATUS,Z 
0074   2???           00214         GOTO    ENCONTRADA ; Z = 0,ENCONTRAMOS LA TECLA
                      00215         ; Z = 1, NO ENCONTRAMOS LA TECLA
                      00216         ; DEBEMOS CAMBIAR AL SIGUIENTE OUTPUT 
0075   1003           00217         BCF     STATUS,C 
0076   0D86           00218         RLF     PORTB,F
0077   2???           00219         GOTO    ESCANEO ; AL CAMBIAR EL OUTPUT VOLVEMOS A ESCANEAR
                      00220         
0078                  00221 ENCONTRADA ; UNA VEZ QUE ENCONTRAMOS LA TECLA VENIMOS ACA
                      00222         
                      00223         ; PRIMERO DEBEMOS VER SI ES NUMERAL O ASTERISCO
0078   087A           00224         MOVF    NUMERAL,W 
0079   0506           00225         ANDWF   PORTB,W
007A   1903           00226         BTFSC   STATUS,Z
007B   2???           00227         GOTO    RESETEAR ;  SI ES NUMERAL, LIMPIA EL BUFFER
007C   087B           00228         MOVF    ASTERISCO,W ; SI NO ES NUMERAL, REVISO SI ES ASTERISCO
007D   0506           00229         ANDWF   PORTB,W
007E   1903           00230         BTFSC   STATUS,Z ; SI DA 0, Z ES 1 ENTONCES ERA NUMERAL
007F   2???           00231         GOTO    GUARDAR ; ES NUMERAL, ASI QUE DEBEMOS GUARDAR LO Q HAY EN PORTB
0080   2???           00232         GOTO    MOSTRAR ; SI NO FUE NUM NI ASTERISCO ENTONCES APRETAMOS UN NUMERO Y TENEMOS QUE MOSTRAR 
                            EL VALOR GUARDADO
                      00233         
                      00234 
                      00235         
                      00236 ; --- LLEGA ACA DESDE SUB_TECLADO CUANDO SE APRETO UN NUMERAL ---       
0081                  00237 GUARDAR 
                      00238         ; VERIFICAMOS QUE GUARDAMOS SOLO 10 VALORES
                      00239         ; SI YA GUARDAMOS NUEVE, VOLVEMOS A 0 - COMIENZA A SOBREESCRIBIR LOS VALORES VIEJOS 
                      00240         ; BUFFER CIRCULAR
MPASM 5.87                      TP_FINAL.ASM   6-10-2022  19:07:20         PAGE  6


LOC  OBJECT CODE     LINE SOURCE TEXT
  VALUE

                      00241         
0081   0AF9           00242         INCF    DELTA,F
0082   0872           00243         MOVF    AND2,W
0083   0679           00244         XORWF   DELTA,W 
0084   1903           00245         BTFSC   STATUS,Z ; Z=0 CONTINUAMOS NORMALMENTE
0085   01F9           00246         CLRF    DELTA ; Z=1 LIMPIAMOS DELTA
                      00247         
                      00248         ; DEBEMOS MANDAR AL ADC A CONVERTIR, ESPERAR POR POLLING A QUE TERMINE
                      00249         ; Y LUEGO TOMAR EL VALOR
                      00250         ; PREVIAMENTE SE DEBE HABER MODIFICADO EL POTENCIOMETRO PARA Q HAYA UN CAMBIO
                      00251         
0086   149F           00252         BSF     ADCON0,1 ; LE DAMOS GO, COMIENZA A CONVERTIR
0087   1F0C           00253 L2      BTFSS   PIR1,ADIF
0088   2???           00254         GOTO    L2 ; SI SIGUE EN 0 ES QUE NO TERMINO DE CONVERIR
0089   130C           00255         BCF     PIR1,ADIF ;TERMINO DE CONVERTIR, LIMPIAMOS LA FLAG
                      00256         
008A   1683 1303      00257         BANKSEL ADRESL ; ESTAMOS EN EL BANCO 1
Message[302]: Register in operand not in bank 0.  Ensure that bank bits are correct.
008C   081E           00258         MOVF    ADRESL,W 
008D   00F8           00259         MOVWF   TEMP
008E   1283 1303      00260         BANKSEL PORTB ; VOLVEMOS AL BANCO 0
                      00261         ; DEBEMOS GUARDAR LA LECTURA DEL ADC EN SAVES+DELTA
0090   0877           00262         MOVF    SAVES,W
0091   0084           00263         MOVWF   FSR ; PASAMOS EL PUNTERO DE DONDE VAMOS A GUARDAR 
0092   0879           00264         MOVF    DELTA,W
0093   0784           00265         ADDWF   FSR,F ; LE SUMAMOS EL DELTA
0094   0878           00266         MOVF    TEMP,W
0095   0080           00267         MOVWF   INDF ; CARGAMOS EL VALOR EN EL BUFFER CIRCULAR
0096   0008           00268         RETURN
                      00269         
                      00270         
                      00271 ; ---- RUTINA DONDE MOSTRAMOS LOS VALORES EN LOS DISPLAYS ---- 
                      00272 ; SE LLAMA DESDE SUB_TECLADO CUANDO SE APRIETA UN NUMERO (CADA NRO DEL TECLADO CORRESPONDE CON UNA DIREC
                            CIÓN DE NUESTRO BUFFER CIRCULAR SAVES)  
0097                  00273 MOSTRAR
0097   0806           00274         MOVF    PORTB,W         ; EN W SE GUARDÓ LA CODIFICACION DE LA TECLA Q SE APRETO 
0098   1703           00275         BSF     STATUS,RP1
0099   1283           00276         BCF     STATUS,RP0      ; EL VALOR QUE NECESITA ESTA EN EL BANCO 2
009A   0084           00277         MOVWF   FSR             ; DIRECCION DONDE SE ENCUENTRA EL NUMERO AL QUE HACE REFERENCIA LA TECLA
                             PRESIONADA
009B   0800           00278         MOVF    INDF,W          ; TOMAMOS EL NUMERO QUE FUE PRESIONADO
009C   1303           00279         BCF     STATUS,RP1      ; VOLVEMOS AL BANCO 0
009D   0084           00280         MOVWF   FSR             ; PONEMOS EN FSR LO Q HABIA EN W QUE ERA EL NRO Q FUE PRESIONADO
009E   0877           00281         MOVF    SAVES,W         ; PONEMOS EN W LA DIR Q TIENE SAVES (SAVES TIENE EL 0X20)
009F   0784           00282         ADDWF   FSR,F           ; TECLA APRETADA + PUNTERO DONDE GUARDAMOS LAS LECTURAS DEL ADC
                      00283         
00A0   0800           00284         MOVF    INDF,W ; OBTENEMOS LA LECTURA DEL ADC
00A1   00F8           00285         MOVWF   TEMP
                      00286         
                      00287         ; SEPARACION DE NIBBLES
00A2   300F           00288         MOVLW   0x0F
00A3   0578           00289         ANDWF   TEMP,W ; UNIDAD - PRIMER NIBBLE
00A4   00FC           00290         MOVWF   UNIDAD
MPASM 5.87                      TP_FINAL.ASM   6-10-2022  19:07:20         PAGE  7


LOC  OBJECT CODE     LINE SOURCE TEXT
  VALUE

                      00291         
00A5   30F0           00292         MOVLW   0xF0
00A6   0578           00293         ANDWF   TEMP,W ; DECENA - SEGUNDO NIBBLE
00A7   00FD           00294         MOVWF   DECENA
00A8   0EFD           00295         SWAPF   DECENA,F ; SWAPEAMOS PARA QUE ESTE EN EL PRIMER NIBBLE
                      00296 
00A9                  00297 DISPLAY_LOOP
                      00298         
                      00299         ; - CODIFICACION UNIDAD
00A9   087C           00300         MOVF    UNIDAD,W
00AA   2???           00301         CALL    CODIFICACION
00AB   0087           00302         MOVWF   PORTC ; PASAMOS A LOS SEGMENTOS
00AC   1409           00303         BSF     PORTE,0 ; PRENDEMOS LA UNIDAD
00AD   2???           00304         CALL    T0_50HZ
00AE   1009           00305         BCF     PORTE,0 ; APAGAMOS LA UNIDAD
                      00306         
                      00307         
                      00308         ; - CODIFICACION DECENA
00AF   087D           00309         MOVF    DECENA,W
00B0   2???           00310         CALL    CODIFICACION
00B1   0087           00311         MOVWF   PORTC ; PASAMOS A LOS SEGMENTOS
00B2   1489           00312         BSF     PORTE,1 ; PRENDEMOS LA DECENA
00B3   2???           00313         CALL    T0_50HZ
00B4   1089           00314         BCF     PORTE,1 ; APAGAMOS LA DECENA
                      00315         
                      00316         ; SI APRETAMOS OTRA TECLA MIENTRAS ESTABAMOS EN EL LOOP, DEBEMOS VOLVER 
                      00317         ; AL MAIN.
00B5   1875           00318         BTFSC   TECLADO,0 
00B6   0008           00319         RETURN
                      00320 
00B7   2???           00321         GOTO    DISPLAY_LOOP ; MOSTRAMOS HASTA QUE HAYA UNA INTERRUPCION DE NUEVO
                      00322         
                      00323 
                      00324 ; ---- CODIFICACION A 7 SEGMENTOS ----
00B8                  00325 CODIFICACION
00B8   0782           00326         ADDWF   PCL,F
00B9   343F           00327         RETLW   0x3F ; 0
00BA   3406           00328         RETLW   0x06 ; 1
00BB   345B           00329         RETLW   0x5B ; 2
00BC   344F           00330         RETLW   0x4F ; 3
00BD   3466           00331         RETLW   0x66 ; 4
00BE   346D           00332         RETLW   0x6D ; 5
00BF   347D           00333         RETLW   0x7D ; 6
00C0   3407           00334         RETLW   0x07 ; 7
00C1   347F           00335         RETLW   0x7F ; 8
00C2   3467           00336         RETLW   0x67 ; 9
00C3   3477           00337         RETLW   0x77 ; A
00C4   341F           00338         RETLW   0x1F ; B
00C5   344E           00339         RETLW   0x4E ; C
00C6   343D           00340         RETLW   0x3D ; D
00C7   344F           00341         RETLW   0x4F ; E
00C8   3447           00342         RETLW   0x47 ; F
                      00343         
MPASM 5.87                      TP_FINAL.ASM   6-10-2022  19:07:20         PAGE  8


LOC  OBJECT CODE     LINE SOURCE TEXT
  VALUE

                      00344 ; --- SE LLAMA DESDE SUBRUTINA MOSTRAR ---      
00C9                  00345 T0_50HZ
                      00346         ; 50HZ POR POLLING
00C9   30B2           00347         MOVLW   .178
00CA   0081           00348         MOVWF   TMR0
00CB   190B           00349         BTFSC   INTCON,T0IF
00CC   2???           00350         GOTO    $-1
00CD   110B           00351         BCF     INTCON,T0IF
00CE   1089           00352         BCF     PORTE,1 ; APAGAMOS LA DECENA
00CF   0008           00353         RETURN
                      00354         
                      00355 ; --- SE LLAMA CUANDO SE APRIETA NUMERAL ---    
00D0                  00356 RESETEAR
00D0   300A           00357         MOVLW   .10
00D1   00F6           00358         MOVWF   CLEAR
00D2   0BF6           00359         DECFSZ  CLEAR,F
00D3   2???           00360         GOTO    BLINK ; SUBRUTINA DEL LED 
00D4   0877           00361         MOVF    SAVES,W
00D5   0084           00362         MOVWF   FSR
00D6   0180           00363         CLRF    INDF
00D7   2???           00364         GOTO    $-5
                      00365         
                      00366         
                      00367 ; ---- RUTINA DE PARPADEO DEL LED ---- SE LLAMA DESDE SUBRUTINA RESETEAR
00D8                  00368 BLINK   
00D8   1909           00369         BTFSC   PORTE,2 ; CHEQUEA SI EL LED ESTA PRENDIDO O APAGADO
00D9   2???           00370         GOTO    APAGAR
00DA   1509           00371         BSF     PORTE,2 ; LED APAGADO, LO PRENDEMOS
00DB   2???           00372         GOTO    SET_
                      00373         
00DC   1109           00374 APAGAR  BCF     PORTE,2 ; LED PRENDIDO, LO APAGAMOS
00DD   0BF0           00375         DECFSZ  COUNT,F
00DE   2???           00376         GOTO    SET_
00DF   1010           00377         BCF     T1CON,0 ; SI HICMOS LOS 4 CICLOS, APAGAMOS EL TIMER
00E0   3004           00378         MOVLW   .4
00E1   00F0           00379         MOVWF   COUNT ; VOLVEMOS A CARGAR EL CONTADOR
00E2   0008           00380         RETURN  
                      00381         
00E3                  00382 SET_    ; SETEAMOS EL CONTADOR CON 0x8000 O 32768
00E3   3000           00383         MOVLW   0x00
00E4   008E           00384         MOVWF   TMR1L
00E5   3080           00385         MOVLW   0x80
00E6   008F           00386         MOVWF   TMR1H 
00E7   1410           00387         BSF     T1CON,0 ; PRENDEMOS EL TIMER
                      00388         
00E8   1C0C           00389 L3      BTFSS   PIR1,TMR1IF ; REVISAMOS POR POLLING EL TIMER 1
00E9   2???           00390         GOTO    L3
00EA   2???           00391         GOTO    BLINK
                      00392         
                      00393         
3FE4 3FFF             00394         END
MPASM 5.87                      TP_FINAL.ASM   6-10-2022  19:07:20         PAGE  9


SYMBOL TABLE
  LABEL                             VALUE 

ABDEN                             00000000
ABDOVF                            00000007
ACKDT                             00000005
ACKEN                             00000004
ACKSTAT                           00000006
ADCON0                            0000001F
ADCON1                            0000009F
ADCS0                             00000006
ADCS1                             00000007
ADDEN                             00000003
ADFM                              00000007
ADIE                              00000006
ADIF                              00000006
ADON                              00000000
ADRESH                            0000001E
ADRESL                            0000009E
AND1                              00000071
AND2                              00000072
ANS0                              00000000
ANS1                              00000001
ANS10                             00000002
ANS11                             00000003
ANS12                             00000004
ANS13                             00000005
ANS2                              00000002
ANS3                              00000003
ANS4                              00000004
ANS5                              00000005
ANS6                              00000006
ANS7                              00000007
ANS8                              00000000
ANS9                              00000001
ANSEL                             00000188
ANSELH                            00000189
APAGAR                            000000DC
ASTERISCO                         0000007B
BAUDCTL                           00000187
BCLIE                             00000003
BCLIF                             00000003
BF                                00000000
BLINK                             000000D8
BRG0                              00000000
BRG1                              00000001
BRG10                             00000002
BRG11                             00000003
BRG12                             00000004
BRG13                             00000005
BRG14                             00000006
BRG15                             00000007
BRG16                             00000003
BRG2                              00000002
BRG3                              00000003
BRG4                              00000004
MPASM 5.87                      TP_FINAL.ASM   6-10-2022  19:07:20         PAGE 10


SYMBOL TABLE
  LABEL                             VALUE 

BRG5                              00000005
BRG6                              00000006
BRG7                              00000007
BRG8                              00000000
BRG9                              00000001
BRGH                              00000002
BU_ST                             00000073
BU_W                              00000074
C                                 00000000
C1CH0                             00000000
C1CH1                             00000001
C1IE                              00000005
C1IF                              00000005
C1OE                              00000005
C1ON                              00000007
C1OUT                             00000006
C1POL                             00000004
C1R                               00000002
C1RSEL                            00000005
C1SEN                             00000005
C2CH0                             00000000
C2CH1                             00000001
C2IE                              00000006
C2IF                              00000006
C2OE                              00000005
C2ON                              00000007
C2OUT                             00000006
C2POL                             00000004
C2R                               00000002
C2REN                             00000004
C2RSEL                            00000004
C2SYNC                            00000000
CCP1CON                           00000017
CCP1IE                            00000002
CCP1IF                            00000002
CCP1M0                            00000000
CCP1M1                            00000001
CCP1M2                            00000002
CCP1M3                            00000003
CCP1X                             00000005
CCP1Y                             00000004
CCP2CON                           0000001D
CCP2IE                            00000000
CCP2IF                            00000000
CCP2M0                            00000000
CCP2M1                            00000001
CCP2M2                            00000002
CCP2M3                            00000003
CCP2X                             00000005
CCP2Y                             00000004
CCPR1                             00000015
CCPR1H                            00000016
CCPR1L                            00000015
MPASM 5.87                      TP_FINAL.ASM   6-10-2022  19:07:20         PAGE 11


SYMBOL TABLE
  LABEL                             VALUE 

CCPR2                             0000001B
CCPR2H                            0000001C
CCPR2L                            0000001B
CHS0                              00000002
CHS1                              00000003
CHS2                              00000004
CHS3                              00000005
CKE                               00000006
CKP                               00000004
CLEAR                             00000076
CM1CON0                           00000107
CM2CON0                           00000108
CM2CON1                           00000109
CODIFICACION                      000000B8
COUNT                             00000070
CREN                              00000004
CSRC                              00000007
D                                 00000005
DATA_ADDRESS                      00000005
DC                                00000001
DC1B0                             00000004
DC1B1                             00000005
DC2B0                             00000004
DC2B1                             00000005
DECENA                            0000007D
DELTA                             00000079
DISPLAY_LOOP                      000000A9
D_A                               00000005
D_NOT_A                           00000005
ECCPAS                            0000009C
ECCPAS0                           00000004
ECCPAS1                           00000005
ECCPAS2                           00000006
ECCPASE                           00000007
EEADR                             0000010D
EEADRH                            0000010F
EECON1                            0000018C
EECON2                            0000018D
EEDAT                             0000010C
EEDATA                            0000010C
EEDATH                            0000010E
EEIE                              00000004
EEIF                              00000004
EEPGD                             00000007
ENCONTRADA                        00000078
ESCANEO                           00000071
F                                 00000001
FERR                              00000002
FLAG                              0000007F
FSR                               00000004
FVREN                             00000000
GCEN                              00000007
GIE                               00000007
MPASM 5.87                      TP_FINAL.ASM   6-10-2022  19:07:20         PAGE 12


SYMBOL TABLE
  LABEL                             VALUE 

GO                                00000001
GO_DONE                           00000001
GO_NOT_DONE                       00000001
GUARDAR                           00000081
HTS                               00000002
I2C_DATA                          00000005
I2C_READ                          00000002
I2C_START                         00000003
I2C_STOP                          00000004
INDF                              00000000
INTCON                            0000000B
INTE                              00000004
INTEDG                            00000006
INTER_SUB                         00000054
INTF                              00000001
IOCB                              00000096
IOCB0                             00000000
IOCB1                             00000001
IOCB2                             00000002
IOCB3                             00000003
IOCB4                             00000004
IOCB5                             00000005
IOCB6                             00000006
IOCB7                             00000007
IRCF0                             00000004
IRCF1                             00000005
IRCF2                             00000006
IRP                               00000007
L1                                0000004F
L2                                00000087
L3                                000000E8
LTS                               00000001
MC1OUT                            00000007
MC2OUT                            00000006
MOSTRAR                           00000097
MSK                               00000093
MSK0                              00000000
MSK1                              00000001
MSK2                              00000002
MSK3                              00000003
MSK4                              00000004
MSK5                              00000005
MSK6                              00000006
MSK7                              00000007
NOT_A                             00000005
NOT_ADDRESS                       00000005
NOT_BO                            00000000
NOT_BOR                           00000000
NOT_DONE                          00000001
NOT_PD                            00000003
NOT_POR                           00000001
NOT_RBPU                          00000007
NOT_RC8                           00000006
MPASM 5.87                      TP_FINAL.ASM   6-10-2022  19:07:20         PAGE 13


SYMBOL TABLE
  LABEL                             VALUE 

NOT_T1SYNC                        00000002
NOT_TO                            00000004
NOT_TX8                           00000006
NOT_W                             00000002
NOT_WRITE                         00000002
NUMERAL                           0000007A
OERR                              00000001
OPTION_REG                        00000081
OSCCON                            0000008F
OSCTUNE                           00000090
OSFIE                             00000007
OSFIF                             00000007
OSTS                              00000003
P                                 00000004
P1M0                              00000006
P1M1                              00000007
PCL                               00000002
PCLATH                            0000000A
PCON                              0000008E
PDC0                              00000000
PDC1                              00000001
PDC2                              00000002
PDC3                              00000003
PDC4                              00000004
PDC5                              00000005
PDC6                              00000006
PEIE                              00000006
PEN                               00000002
PIE1                              0000008C
PIE2                              0000008D
PIR1                              0000000C
PIR2                              0000000D
PORTA                             00000005
PORTB                             00000006
PORTC                             00000007
PORTD                             00000008
PORTE                             00000009
PR2                               00000092
PRSEN                             00000007
PS0                               00000000
PS1                               00000001
PS2                               00000002
PSA                               00000003
PSSAC0                            00000002
PSSAC1                            00000003
PSSBD0                            00000000
PSSBD1                            00000001
PSTRCON                           0000009D
PULSR                             00000002
PULSS                             00000003
PWM1CON                           0000009B
R                                 00000002
RA0                               00000000
MPASM 5.87                      TP_FINAL.ASM   6-10-2022  19:07:20         PAGE 14


SYMBOL TABLE
  LABEL                             VALUE 

RA1                               00000001
RA2                               00000002
RA3                               00000003
RA4                               00000004
RA5                               00000005
RA6                               00000006
RA7                               00000007
RB0                               00000000
RB1                               00000001
RB2                               00000002
RB3                               00000003
RB4                               00000004
RB5                               00000005
RB6                               00000006
RB7                               00000007
RBIE                              00000003
RBIF                              00000000
RC0                               00000000
RC1                               00000001
RC2                               00000002
RC3                               00000003
RC4                               00000004
RC5                               00000005
RC6                               00000006
RC7                               00000007
RC8_9                             00000006
RC9                               00000006
RCD8                              00000000
RCEN                              00000003
RCIDL                             00000006
RCIE                              00000005
RCIF                              00000005
RCREG                             0000001A
RCSTA                             00000018
RD                                00000000
RD0                               00000000
RD1                               00000001
RD2                               00000002
RD3                               00000003
RD4                               00000004
RD5                               00000005
RD6                               00000006
RD7                               00000007
RE0                               00000000
RE1                               00000001
RE2                               00000002
RE3                               00000003
READ_WRITE                        00000002
RESETEAR                          000000D0
RETARDO_TECLAS                    00000065
RP0                               00000005
RP1                               00000006
RSEN                              00000001
MPASM 5.87                      TP_FINAL.ASM   6-10-2022  19:07:20         PAGE 15


SYMBOL TABLE
  LABEL                             VALUE 

RX9                               00000006
RX9D                              00000000
R_NOT_W                           00000002
R_W                               00000002
S                                 00000003
SAVES                             00000077
SBOREN                            00000004
SCKP                              00000004
SCS                               00000000
SEN                               00000000
SENDB                             00000003
SET_                              000000E3
SMP                               00000007
SPBRG                             00000099
SPBRGH                            0000009A
SPEN                              00000007
SR0                               00000006
SR1                               00000007
SRCON                             00000185
SREN                              00000005
SSPADD                            00000093
SSPBUF                            00000013
SSPCON                            00000014
SSPCON2                           00000091
SSPEN                             00000005
SSPIE                             00000003
SSPIF                             00000003
SSPM0                             00000000
SSPM1                             00000001
SSPM2                             00000002
SSPM3                             00000003
SSPMSK                            00000093
SSPOV                             00000006
SSPSTAT                           00000094
START                             00000005
STATUS                            00000003
STRA                              00000000
STRB                              00000001
STRC                              00000002
STRD                              00000003
STRSYNC                           00000004
SUB_TECLADO                       00000068
SWDTEN                            00000000
SYNC                              00000004
T0CS                              00000005
T0IE                              00000005
T0IF                              00000002
T0SE                              00000004
T0_50HZ                           000000C9
T1CKPS0                           00000004
T1CKPS1                           00000005
T1CON                             00000010
T1GINV                            00000007
MPASM 5.87                      TP_FINAL.ASM   6-10-2022  19:07:20         PAGE 16


SYMBOL TABLE
  LABEL                             VALUE 

T1GIV                             00000007
T1GSS                             00000001
T1INSYNC                          00000002
T1OSCEN                           00000003
T1SYNC                            00000002
T2CKPS0                           00000000
T2CKPS1                           00000001
T2CON                             00000012
TECLADO                           00000075
TEMP                              00000078
TIMER                             0000007E
TMR0                              00000001
TMR0IE                            00000005
TMR0IF                            00000002
TMR1                              0000000E
TMR1CS                            00000001
TMR1GE                            00000006
TMR1H                             0000000F
TMR1IE                            00000000
TMR1IF                            00000000
TMR1L                             0000000E
TMR1ON                            00000000
TMR2                              00000011
TMR2IE                            00000001
TMR2IF                            00000001
TMR2ON                            00000002
TOUTPS0                           00000003
TOUTPS1                           00000004
TOUTPS2                           00000005
TOUTPS3                           00000006
TRISA                             00000085
TRISA0                            00000000
TRISA1                            00000001
TRISA2                            00000002
TRISA3                            00000003
TRISA4                            00000004
TRISA5                            00000005
TRISA6                            00000006
TRISA7                            00000007
TRISB                             00000086
TRISB0                            00000000
TRISB1                            00000001
TRISB2                            00000002
TRISB3                            00000003
TRISB4                            00000004
TRISB5                            00000005
TRISB6                            00000006
TRISB7                            00000007
TRISC                             00000087
TRISC0                            00000000
TRISC1                            00000001
TRISC2                            00000002
TRISC3                            00000003
MPASM 5.87                      TP_FINAL.ASM   6-10-2022  19:07:20         PAGE 17


SYMBOL TABLE
  LABEL                             VALUE 

TRISC4                            00000004
TRISC5                            00000005
TRISC6                            00000006
TRISC7                            00000007
TRISD                             00000088
TRISD0                            00000000
TRISD1                            00000001
TRISD2                            00000002
TRISD3                            00000003
TRISD4                            00000004
TRISD5                            00000005
TRISD6                            00000006
TRISD7                            00000007
TRISE                             00000089
TRISE0                            00000000
TRISE1                            00000001
TRISE2                            00000002
TRISE3                            00000003
TRMT                              00000001
TUN0                              00000000
TUN1                              00000001
TUN2                              00000002
TUN3                              00000003
TUN4                              00000004
TX8_9                             00000006
TX9                               00000006
TX9D                              00000000
TXD8                              00000000
TXEN                              00000005
TXIE                              00000004
TXIF                              00000004
TXREG                             00000019
TXSTA                             00000098
UA                                00000001
ULPWUE                            00000005
ULPWUIE                           00000002
ULPWUIF                           00000002
UNIDAD                            0000007C
VCFG0                             00000004
VCFG1                             00000005
VR0                               00000000
VR1                               00000001
VR2                               00000002
VR3                               00000003
VRCON                             00000097
VREN                              00000007
VROE                              00000006
VRR                               00000005
VRSS                              00000004
W                                 00000000
WCOL                              00000007
WDTCON                            00000105
WDTPS0                            00000001
MPASM 5.87                      TP_FINAL.ASM   6-10-2022  19:07:20         PAGE 18


SYMBOL TABLE
  LABEL                             VALUE 

WDTPS1                            00000002
WDTPS2                            00000003
WDTPS3                            00000004
WPUB                              00000095
WPUB0                             00000000
WPUB1                             00000001
WPUB2                             00000002
WPUB3                             00000003
WPUB4                             00000004
WPUB5                             00000005
WPUB6                             00000006
WPUB7                             00000007
WR                                00000001
WREN                              00000002
WRERR                             00000003
WUE                               00000001
Z                                 00000002
_.org_2_00CC                      000000CC
_.org_2_00D7                      000000D7
_BOR21V                           00003EFF
_BOR40V                           00003FFF
_BOR4V_BOR21V                     00003EFF
_BOR4V_BOR40V                     00003FFF
_BOREN_NSLEEP                     00003EFF
_BOREN_OFF                        00003CFF
_BOREN_ON                         00003FFF
_BOREN_SBODEN                     00003DFF
_BOR_NSLEEP                       00003EFF
_BOR_OFF                          00003CFF
_BOR_ON                           00003FFF
_BOR_SBODEN                       00003DFF
_CONFIG1                          00002007
_CONFIG2                          00002008
_CPD_OFF                          00003FFF
_CPD_ON                           00003F7F
_CP_OFF                           00003FFF
_CP_ON                            00003FBF
_DEBUG_OFF                        00003FFF
_DEBUG_ON                         00001FFF
_DEVID1                           00002006
_EC_OSC                           00003FFB
_EXTRC                            00003FFF
_EXTRCIO                          00003FFE
_EXTRC_OSC_CLKOUT                 00003FFF
_EXTRC_OSC_NOCLKOUT               00003FFE
_FCMEN_OFF                        000037FF
_FCMEN_ON                         00003FFF
_FOSC_EC                          00003FFB
_FOSC_EXTRC_CLKOUT                00003FFF
_FOSC_EXTRC_NOCLKOUT              00003FFE
_FOSC_HS                          00003FFA
_FOSC_INTRC_CLKOUT                00003FFD
_FOSC_INTRC_NOCLKOUT              00003FFC
MPASM 5.87                      TP_FINAL.ASM   6-10-2022  19:07:20         PAGE 19


SYMBOL TABLE
  LABEL                             VALUE 

_FOSC_LP                          00003FF8
_FOSC_XT                          00003FF9
_HS_OSC                           00003FFA
_IDLOC0                           00002000
_IDLOC1                           00002001
_IDLOC2                           00002002
_IDLOC3                           00002003
_IESO_OFF                         00003BFF
_IESO_ON                          00003FFF
_INTOSC                           00003FFD
_INTOSCIO                         00003FFC
_INTRC_OSC_CLKOUT                 00003FFD
_INTRC_OSC_NOCLKOUT               00003FFC
_LP_OSC                           00003FF8
_LVP_OFF                          00002FFF
_LVP_ON                           00003FFF
_MCLRE_OFF                        00003FDF
_MCLRE_ON                         00003FFF
_PWRTE_OFF                        00003FFF
_PWRTE_ON                         00003FEF
_WDTE_OFF                         00003FF7
_WDTE_ON                          00003FFF
_WDT_OFF                          00003FF7
_WDT_ON                           00003FFF
_WRT_1FOURTH                      00003BFF
_WRT_256                          00003DFF
_WRT_HALF                         000039FF
_WRT_OFF                          00003FFF
_XT_OSC                           00003FF9
__16F887                          00000001

Errors   :     0
Warnings :     0 reported,     0 suppressed
Messages :    13 reported,     0 suppressed

